target datalayout = "e-m:e-p270:32:32-p271:32:32-p272:64:64-i64:64-i128:128-f80:128-n8:16:32:64-S128"
target triple = "x86_64-pc-linux-gnu"

%class.QString = type { %struct.QArrayDataPointer }
%struct.QArrayDataPointer = type { ptr, ptr, i64 }
%class.FilterDialog = type { %class.GeometryStateDialog, ptr, ptr, i32, ptr }
%class.GeometryStateDialog = type { %class.QDialog, %class.QString, ptr }
%class.QDialog = type { %class.QWidget }
%class.QWidget = type { %class.QObject, %class.QPaintDevice.base, ptr }
%class.QObject = type { ptr, %class.QScopedPointer }
%class.QScopedPointer = type { ptr }
%class.QPaintDevice.base = type <{ ptr, i16 }>
%class.Ui_FilterDialog = type { ptr, ptr, ptr, ptr, ptr, ptr, ptr, ptr, ptr }
%class.QModelIndex = type { i32, i32, i64, ptr }
%class.QList.7 = type { %struct.QArrayDataPointer.10 }
%struct.QArrayDataPointer.10 = type { ptr, ptr, i64 }
%class.QBasicAtomicInteger = type { %"struct.std::atomic" }
%"struct.std::atomic" = type { %"struct.std::__atomic_base" }
%"struct.std::__atomic_base" = type { i32 }
%struct.QArrayData = type { %class.QBasicAtomicInteger, %class.QFlags.26, i64 }
%class.QFlags.26 = type { i32 }

; Function Attrs: mustprogress nounwind null_pointer_is_valid sspstrong uwtable
define linkonce_odr noundef i32 @_ZNSt13__atomic_baseIiEmmEv(ptr noundef align 4 dereferenceable_or_null(4) %0) #7 comdat align 2 {
  %2 = alloca ptr, align 8
  %3 = alloca i32, align 4
  %4 = alloca i32, align 4
  store ptr %0, ptr %2, align 8
  %5 = load ptr, ptr %2, align 8
  %6 = getelementptr inbounds nuw %"struct.std::__atomic_base", ptr %5, i32 0, i32 0
  store i32 1, ptr %3, align 4
  %7 = load i32, ptr %3, align 4
  %8 = atomicrmw sub ptr %6, i32 %7 seq_cst, align 4
  %9 = sub i32 %8, %7
  store i32 %9, ptr %4, align 4
  %10 = load i32, ptr %4, align 4
  ret i32 %10
}

; Function Attrs: mustprogress nounwind null_pointer_is_valid sspstrong uwtable
define linkonce_odr void @_ZNSt12_Destroy_auxILb1EE9__destroyIP11QModelIndexEEvT_S4_(ptr noundef %0, ptr noundef %1) #7 comdat align 2 {
  %3 = alloca ptr, align 8
  %4 = alloca ptr, align 8
  store ptr %0, ptr %3, align 8
  store ptr %1, ptr %4, align 8
  ret void
}

; Function Attrs: inlinehint mustprogress nounwind null_pointer_is_valid sspstrong uwtable
define linkonce_odr noundef zeroext i1 @_ZN10QAtomicOpsIiE5derefIiEEbRSt6atomicIT_E(ptr noundef align 4 dereferenceable(4) %0) #1 comdat align 2 {
  %2 = alloca ptr, align 8
  store ptr %0, ptr %2, align 8
  %3 = load ptr, ptr %2, align 8
  %4 = call noundef i32 @_ZNSt13__atomic_baseIiEmmEv(ptr noundef align 4 dereferenceable_or_null(4) %3) #26
  %5 = icmp ne i32 %4, 0
  ret i1 %5
}

; Function Attrs: inlinehint mustprogress null_pointer_is_valid sspstrong uwtable
define linkonce_odr void @_ZSt8_DestroyIP11QModelIndexEvT_S2_(ptr noundef %0, ptr noundef %1) #6 comdat {
  %3 = alloca ptr, align 8
  %4 = alloca ptr, align 8
  store ptr %0, ptr %3, align 8
  store ptr %1, ptr %4, align 8
  %5 = load ptr, ptr %3, align 8
  %6 = load ptr, ptr %4, align 8
  call void @_ZNSt12_Destroy_auxILb1EE9__destroyIP11QModelIndexEEvT_S4_(ptr noundef %5, ptr noundef %6)
  ret void
}

; Function Attrs: mustprogress nounwind null_pointer_is_valid sspstrong uwtable
define linkonce_odr noundef ptr @_ZN17QArrayDataPointerI11QModelIndexE4dataEv(ptr noundef align 8 dereferenceable_or_null(24) %0) #7 comdat align 2 {
  %2 = alloca ptr, align 8
  store ptr %0, ptr %2, align 8
  %3 = load ptr, ptr %2, align 8
  %4 = getelementptr inbounds nuw %struct.QArrayDataPointer.10, ptr %3, i32 0, i32 1
  %5 = load ptr, ptr %4, align 8
  ret ptr %5
}

; Function Attrs: mustprogress nounwind null_pointer_is_valid sspstrong uwtable
define linkonce_odr noundef zeroext i1 @_ZN19QBasicAtomicIntegerIiE5derefEv(ptr noundef align 4 dereferenceable_or_null(4) %0) #7 comdat align 2 {
  %2 = alloca ptr, align 8
  store ptr %0, ptr %2, align 8
  %3 = load ptr, ptr %2, align 8
  %4 = getelementptr inbounds nuw %class.QBasicAtomicInteger, ptr %3, i32 0, i32 0
  %5 = call noundef zeroext i1 @_ZN10QAtomicOpsIiE5derefIiEEbRSt6atomicIT_E(ptr noundef align 4 dereferenceable(4) %4) #26
  ret i1 %5
}

; Function Attrs: inlinehint mustprogress null_pointer_is_valid sspstrong uwtable
define linkonce_odr void @_ZSt7destroyIP11QModelIndexEvT_S2_(ptr noundef %0, ptr noundef %1) #6 comdat {
  %3 = alloca ptr, align 8
  %4 = alloca ptr, align 8
  store ptr %0, ptr %3, align 8
  store ptr %1, ptr %4, align 8
  %5 = load ptr, ptr %3, align 8
  %6 = load ptr, ptr %4, align 8
  call void @_ZSt8_DestroyIP11QModelIndexEvT_S2_(ptr noundef %5, ptr noundef %6)
  ret void
}

; Function Attrs: mustprogress nounwind null_pointer_is_valid sspstrong uwtable
define linkonce_odr noundef ptr @_ZN17QArrayDataPointerI11QModelIndexE3endEv(ptr noundef align 8 dereferenceable_or_null(24) %0) #7 comdat align 2 {
  %2 = alloca ptr, align 8
  store ptr %0, ptr %2, align 8
  %3 = load ptr, ptr %2, align 8
  %4 = call noundef ptr @_ZN17QArrayDataPointerI11QModelIndexE4dataEv(ptr noundef align 8 dereferenceable_or_null(24) %3) #26
  %5 = getelementptr inbounds nuw %struct.QArrayDataPointer.10, ptr %3, i32 0, i32 2
  %6 = load i64, ptr %5, align 8
  %7 = getelementptr %class.QModelIndex, ptr %4, i64 %6
  ret ptr %7
}

; Function Attrs: mustprogress nounwind null_pointer_is_valid sspstrong uwtable
define linkonce_odr noundef ptr @_ZN17QArrayDataPointerI11QModelIndexE5beginEv(ptr noundef align 8 dereferenceable_or_null(24) %0) #7 comdat align 2 {
  %2 = alloca ptr, align 8
  store ptr %0, ptr %2, align 8
  %3 = load ptr, ptr %2, align 8
  %4 = call noundef ptr @_ZN17QArrayDataPointerI11QModelIndexE4dataEv(ptr noundef align 8 dereferenceable_or_null(24) %3) #26
  ret ptr %4
}

; Function Attrs: mustprogress nounwind null_pointer_is_valid sspstrong uwtable
define linkonce_odr noundef zeroext i1 @_ZN10QArrayData5derefEv(ptr noundef align 8 dereferenceable_or_null(16) %0) #7 comdat align 2 {
  %2 = alloca ptr, align 8
  store ptr %0, ptr %2, align 8
  %3 = load ptr, ptr %2, align 8
  %4 = getelementptr inbounds nuw %struct.QArrayData, ptr %3, i32 0, i32 0
  %5 = call noundef zeroext i1 @_ZN19QBasicAtomicIntegerIiE5derefEv(ptr noundef align 4 dereferenceable_or_null(4) %4) #26
  ret i1 %5
}

; Function Attrs: noinline noreturn nounwind null_pointer_is_valid sspstrong uwtable
define linkonce_odr hidden void @__clang_call_terminate(ptr noundef %0) #14 comdat {
  %2 = call ptr @__cxa_begin_catch(ptr %0) #26
  call void @_ZSt9terminatev() #30
  unreachable
}

; Function Attrs: mustprogress nounwind null_pointer_is_valid sspstrong uwtable
define linkonce_odr void @_ZN15QTypedArrayDataI11QModelIndexE10deallocateEP10QArrayData(ptr noundef %0) #7 comdat align 2 {
  %2 = alloca ptr, align 8
  store ptr %0, ptr %2, align 8
  %3 = load ptr, ptr %2, align 8
  call void @_ZN10QArrayData10deallocateEPS_xx(ptr noundef %3, i64 noundef 24, i64 noundef 8) #26
  ret void
}

; Function Attrs: mustprogress null_pointer_is_valid sspstrong uwtable
define linkonce_odr void @_ZN9QtPrivate16QGenericArrayOpsI11QModelIndexE10destroyAllEv(ptr noundef align 8 dereferenceable_or_null(24) %0) #0 comdat align 2 {
  %2 = alloca ptr, align 8
  store ptr %0, ptr %2, align 8
  %3 = load ptr, ptr %2, align 8
  %4 = call noundef ptr @_ZN17QArrayDataPointerI11QModelIndexE5beginEv(ptr noundef align 8 dereferenceable_or_null(24) %3) #26
  %5 = call noundef ptr @_ZN17QArrayDataPointerI11QModelIndexE3endEv(ptr noundef align 8 dereferenceable_or_null(24) %3) #26
  call void @_ZSt7destroyIP11QModelIndexEvT_S2_(ptr noundef %4, ptr noundef %5)
  ret void
}

; Function Attrs: mustprogress nounwind null_pointer_is_valid sspstrong uwtable
define linkonce_odr noundef ptr @_ZN17QArrayDataPointerI11QModelIndexEptEv(ptr noundef align 8 dereferenceable_or_null(24) %0) #7 comdat align 2 {
  %2 = alloca ptr, align 8
  store ptr %0, ptr %2, align 8
  %3 = load ptr, ptr %2, align 8
  ret ptr %3
}

; Function Attrs: mustprogress nounwind null_pointer_is_valid sspstrong uwtable
define linkonce_odr noundef zeroext i1 @_ZN17QArrayDataPointerI11QModelIndexE5derefEv(ptr noundef align 8 dereferenceable_or_null(24) %0) #7 comdat align 2 {
  %2 = alloca ptr, align 8
  store ptr %0, ptr %2, align 8
  %3 = load ptr, ptr %2, align 8
  %4 = getelementptr inbounds nuw %struct.QArrayDataPointer.10, ptr %3, i32 0, i32 0
  %5 = load ptr, ptr %4, align 8
  %6 = icmp ne ptr %5, null
  br i1 %6, label %7, label %11

7:                                                ; preds = %1
  %8 = getelementptr inbounds nuw %struct.QArrayDataPointer.10, ptr %3, i32 0, i32 0
  %9 = load ptr, ptr %8, align 8
  %10 = call noundef zeroext i1 @_ZN10QArrayData5derefEv(ptr noundef align 8 dereferenceable_or_null(16) %9) #26
  br label %11

11:                                               ; preds = %7, %1
  %12 = phi i1 [ true, %1 ], [ %10, %7 ]
  ret i1 %12
}

; Function Attrs: mustprogress nounwind null_pointer_is_valid sspstrong uwtable
define linkonce_odr noundef ptr @_ZNK17QArrayDataPointerI11QModelIndexEptEv(ptr noundef align 8 dereferenceable_or_null(24) %0) #7 comdat align 2 {
  %2 = alloca ptr, align 8
  store ptr %0, ptr %2, align 8
  %3 = load ptr, ptr %2, align 8
  ret ptr %3
}

; Function Attrs: mustprogress nounwind null_pointer_is_valid sspstrong uwtable
define linkonce_odr void @_ZN17QArrayDataPointerI11QModelIndexED2Ev(ptr noundef align 8 dereferenceable_or_null(24) %0) unnamed_addr #7 comdat align 2 personality ptr @__gxx_personality_v0 {
  %2 = alloca ptr, align 8
  store ptr %0, ptr %2, align 8
  %3 = load ptr, ptr %2, align 8
  %4 = call noundef zeroext i1 @_ZN17QArrayDataPointerI11QModelIndexE5derefEv(ptr noundef align 8 dereferenceable_or_null(24) %3) #26
  br i1 %4, label %10, label %5

5:                                                ; preds = %1
  %6 = call noundef ptr @_ZN17QArrayDataPointerI11QModelIndexEptEv(ptr noundef align 8 dereferenceable_or_null(24) %3) #26
  invoke void @_ZN9QtPrivate16QGenericArrayOpsI11QModelIndexE10destroyAllEv(ptr noundef align 8 dereferenceable_or_null(24) %6)
          to label %7 unwind label %11

7:                                                ; preds = %5
  %8 = getelementptr inbounds nuw %struct.QArrayDataPointer.10, ptr %3, i32 0, i32 0
  %9 = load ptr, ptr %8, align 8
  call void @_ZN15QTypedArrayDataI11QModelIndexE10deallocateEP10QArrayData(ptr noundef %9) #26
  br label %10

10:                                               ; preds = %7, %1
  ret void

11:                                               ; preds = %5
  %12 = landingpad { ptr, i32 }
          catch ptr null
  %13 = extractvalue { ptr, i32 } %12, 0
  call void @__clang_call_terminate(ptr %13) #30
  unreachable
}

; Function Attrs: mustprogress nounwind null_pointer_is_valid sspstrong uwtable
define linkonce_odr noundef i64 @_ZNK5QListI11QModelIndexE4sizeEv(ptr noundef align 8 dereferenceable_or_null(24) %0) #7 comdat align 2 {
  %2 = alloca ptr, align 8
  store ptr %0, ptr %2, align 8
  %3 = load ptr, ptr %2, align 8
  %4 = getelementptr inbounds nuw %class.QList.7, ptr %3, i32 0, i32 0
  %5 = call noundef ptr @_ZNK17QArrayDataPointerI11QModelIndexEptEv(ptr noundef align 8 dereferenceable_or_null(24) %4) #26
  %6 = getelementptr inbounds nuw %struct.QArrayDataPointer.10, ptr %5, i32 0, i32 2
  %7 = load i64, ptr %6, align 8
  ret i64 %7
}

; Function Attrs: inlinehint mustprogress nounwind null_pointer_is_valid sspstrong uwtable
define linkonce_odr void @_ZN5QListI11QModelIndexED2Ev(ptr noundef align 8 dereferenceable_or_null(24) %0) unnamed_addr #1 comdat align 2 {
  %2 = alloca ptr, align 8
  store ptr %0, ptr %2, align 8
  %3 = load ptr, ptr %2, align 8
  %4 = getelementptr inbounds nuw %class.QList.7, ptr %3, i32 0, i32 0
  call void @_ZN17QArrayDataPointerI11QModelIndexED2Ev(ptr noundef align 8 dereferenceable_or_null(24) %4) #26
  ret void
}

; Function Attrs: mustprogress nounwind null_pointer_is_valid sspstrong uwtable
define linkonce_odr noundef i64 @_ZNK5QListI11QModelIndexE5countEv(ptr noundef align 8 dereferenceable_or_null(24) %0) #7 comdat align 2 {
  %2 = alloca ptr, align 8
  store ptr %0, ptr %2, align 8
  %3 = load ptr, ptr %2, align 8
  %4 = call noundef i64 @_ZNK5QListI11QModelIndexE4sizeEv(ptr noundef align 8 dereferenceable_or_null(24) %3) #26
  ret i64 %4
}

; Function Attrs: mustprogress null_pointer_is_valid sspstrong uwtable
define void @_ZN12FilterDialog13updateWidgetsEv(ptr noundef align 8 dereferenceable_or_null(104) %0) #0 align 2 {
  %2 = alloca ptr, align 8
  %3 = alloca i64, align 8
  %4 = alloca %class.QList.7, align 8
  store ptr %0, ptr %2, align 8
  %5 = load ptr, ptr %2, align 8
  %6 = getelementptr inbounds nuw %class.FilterDialog, ptr %5, i32 0, i32 1
  %7 = load ptr, ptr %6, align 8
  %8 = getelementptr inbounds nuw %class.Ui_FilterDialog, ptr %7, i32 0, i32 1
  %9 = load ptr, ptr %8, align 8
  %10 = call noundef ptr @_ZNK17QAbstractItemView14selectionModelEv(ptr noundef align 8 dereferenceable_or_null(40) %9)
  %11 = icmp ne ptr %10, null
  br i1 %11, label %13, label %12

12:                                               ; preds = %1
  br label %32

13:                                               ; preds = %1
  call void @llvm.lifetime.start.p0(i64 8, ptr %3) #26
  call void @llvm.lifetime.start.p0(i64 24, ptr %4) #26
  %14 = getelementptr inbounds nuw %class.FilterDialog, ptr %5, i32 0, i32 1
  %15 = load ptr, ptr %14, align 8
  %16 = getelementptr inbounds nuw %class.Ui_FilterDialog, ptr %15, i32 0, i32 1
  %17 = load ptr, ptr %16, align 8
  %18 = call noundef ptr @_ZNK17QAbstractItemView14selectionModelEv(ptr noundef align 8 dereferenceable_or_null(40) %17)
  call void @_ZNK19QItemSelectionModel12selectedRowsEi(ptr dead_on_unwind writable sret(%class.QList.7) align 8 %4, ptr noundef align 8 dereferenceable_or_null(16) %18, i32 noundef 0)
  %19 = call noundef i64 @_ZNK5QListI11QModelIndexE5countEv(ptr noundef align 8 dereferenceable_or_null(24) %4) #26
  call void @_ZN5QListI11QModelIndexED2Ev(ptr noundef align 8 dereferenceable_or_null(24) %4) #26
  call void @llvm.lifetime.end.p0(i64 24, ptr %4) #26
  store i64 %19, ptr %3, align 8
  %20 = getelementptr inbounds nuw %class.FilterDialog, ptr %5, i32 0, i32 1
  %21 = load ptr, ptr %20, align 8
  %22 = getelementptr inbounds nuw %class.Ui_FilterDialog, ptr %21, i32 0, i32 5
  %23 = load ptr, ptr %22, align 8
  %24 = load i64, ptr %3, align 8
  %25 = icmp eq i64 %24, 1
  call void @_ZN7QWidget10setEnabledEb(ptr noundef align 8 dereferenceable_or_null(40) %23, i1 noundef zeroext %25)
  %26 = getelementptr inbounds nuw %class.FilterDialog, ptr %5, i32 0, i32 1
  %27 = load ptr, ptr %26, align 8
  %28 = getelementptr inbounds nuw %class.Ui_FilterDialog, ptr %27, i32 0, i32 4
  %29 = load ptr, ptr %28, align 8
  %30 = load i64, ptr %3, align 8
  %31 = icmp sgt i64 %30, 0
  call void @_ZN7QWidget10setEnabledEb(ptr noundef align 8 dereferenceable_or_null(40) %29, i1 noundef zeroext %31)
  call void @llvm.lifetime.end.p0(i64 8, ptr %3) #26
  br label %32

32:                                               ; preds = %13, %12
  ret void
}