; Function Attrs: mustprogress null_pointer_is_valid sspstrong uwtable
define void @_ZN12FilterDialog13updateWidgetsEv(ptr noundef readonly align 8 captures(none) dereferenceable_or_null(104) %0) local_unnamed_addr #0 align 2 personality ptr @__gxx_personality_v0 {
  %2 = alloca %class.QList.7, align 8
  %3 = getelementptr inbounds nuw i8, ptr %0, i64 72
  %4 = load ptr, ptr %3, align 8
  %5 = getelementptr inbounds nuw i8, ptr %4, i64 8
  %6 = load ptr, ptr %5, align 8
  %7 = tail call noundef ptr @_ZNK17QAbstractItemView14selectionModelEv(ptr noundef align 8 dereferenceable_or_null(40) %6)
  %.not = icmp eq ptr %7, null
  br i1 %.not, label %27, label %8

8:                                                ; preds = %1
  call void @llvm.lifetime.start.p0(i64 24, ptr nonnull %2) #21
  %9 = load ptr, ptr %3, align 8
  %10 = getelementptr inbounds nuw i8, ptr %9, i64 8
  %11 = load ptr, ptr %10, align 8
  %12 = tail call noundef ptr @_ZNK17QAbstractItemView14selectionModelEv(ptr noundef align 8 dereferenceable_or_null(40) %11)
  call void @_ZNK19QItemSelectionModel12selectedRowsEi(ptr dead_on_unwind nonnull writable sret(%class.QList.7) align 8 %2, ptr noundef align 8 dereferenceable_or_null(16) %12, i32 noundef 0)
  %13 = getelementptr inbounds nuw i8, ptr %2, i64 16
  %14 = load i64, ptr %13, align 8
  %15 = load ptr, ptr %2, align 8
  %.not.i.i.i = icmp eq ptr %15, null
  br i1 %.not.i.i.i, label %_ZN5QListI11QModelIndexED2Ev.exit, label %_ZN17QArrayDataPointerI11QModelIndexE5derefEv.exit.i.i

_ZN17QArrayDataPointerI11QModelIndexE5derefEv.exit.i.i: ; preds = %8
  %16 = atomicrmw sub ptr %15, i32 1 seq_cst, align 4
  %.not.i.i = icmp eq i32 %16, 1
  br i1 %.not.i.i, label %17, label %_ZN5QListI11QModelIndexED2Ev.exit

17:                                               ; preds = %_ZN17QArrayDataPointerI11QModelIndexE5derefEv.exit.i.i
  %18 = load ptr, ptr %2, align 8
  call void @_ZN10QArrayData10deallocateEPS_xx(ptr noundef %18, i64 noundef 24, i64 noundef 8) #21
  br label %_ZN5QListI11QModelIndexED2Ev.exit

_ZN5QListI11QModelIndexED2Ev.exit:                ; preds = %8, %_ZN17QArrayDataPointerI11QModelIndexE5derefEv.exit.i.i, %17
  call void @llvm.lifetime.end.p0(i64 24, ptr nonnull %2) #21
  %19 = load ptr, ptr %3, align 8
  %20 = getelementptr inbounds nuw i8, ptr %19, i64 40
  %21 = load ptr, ptr %20, align 8
  %22 = icmp eq i64 %14, 1
  call void @_ZN7QWidget10setEnabledEb(ptr noundef align 8 dereferenceable_or_null(40) %21, i1 noundef zeroext %22)
  %23 = load ptr, ptr %3, align 8
  %24 = getelementptr inbounds nuw i8, ptr %23, i64 32
  %25 = load ptr, ptr %24, align 8
  %26 = icmp sgt i64 %14, 0
  call void @_ZN7QWidget10setEnabledEb(ptr noundef align 8 dereferenceable_or_null(40) %25, i1 noundef zeroext %26)
  br label %27

27:                                               ; preds = %1, %_ZN5QListI11QModelIndexED2Ev.exit
  ret void
}